; Function Attrs: inlinehint nounwind uwtable
define internal fastcc noundef ptr @lean_mk_empty_array_with_capacity(ptr noundef %0) unnamed_addr #0 {
  %2 = ptrtoint ptr %0 to i64
  %3 = and i64 %2, 1
  %.not = icmp eq i64 %3, 0
  br i1 %.not, label %4, label %5

4:                                                ; preds = %1
  tail call void @lean_internal_panic_out_of_memory() #4
  unreachable

5:                                                ; preds = %1
  %6 = lshr i64 %2, 1
  %7 = shl i64 %6, 3
  %8 = add i64 %7, 24
  %9 = tail call ptr @lean_alloc_object(i64 noundef %8) #5
  store i32 1, ptr %9, align 4, !tbaa !4
  %10 = getelementptr inbounds nuw i8, ptr %9, i64 4
  %11 = load i32, ptr %10, align 4
  %12 = and i32 %11, 65535
  %13 = or disjoint i32 %12, -167772160
  store i32 %13, ptr %10, align 4
  %14 = getelementptr inbounds nuw i8, ptr %9, i64 8
  store i64 0, ptr %14, align 8, !tbaa !9
  %15 = getelementptr inbounds nuw i8, ptr %9, i64 16
  store i64 %6, ptr %15, align 8, !tbaa !9
  ret ptr %9
}